target datalayout = "e-m:e-p270:32:32-p271:32:32-p272:64:64-i64:64-i128:128-f80:128-n8:16:32:64-S128"
target triple = "x86_64-pc-linux-gnu"

%struct.OutputFile = type { ptr, i32, ptr, ptr, i32, i64, i64, i32 }
%struct.OutputStream = type { ptr, i32, ptr, i32, ptr, ptr, ptr, i32, i32, i32, %struct.AVRational, %struct.KeyframeForceCtx, ptr, ptr, ptr, ptr, ptr, i64, i32, %struct.EncStats, %struct.EncStats, i32 }
%struct.AVRational = type { i32, i32 }
%struct.KeyframeForceCtx = type { i32, i64, ptr, i32, i32, ptr, [5 x double], i32 }
%struct.EncStats = type { ptr, i32, ptr, %union.pthread_mutex_t, i32 }
%union.pthread_mutex_t = type { %struct.__pthread_mutex_s }
%struct.__pthread_mutex_s = type { i32, i32, i32, i32, i32, i16, i16, %struct.__pthread_internal_list }
%struct.__pthread_internal_list = type { ptr, ptr }
%struct.AVStream = type { ptr, i32, i32, ptr, ptr, %struct.AVRational, i64, i64, i64, i32, i32, %struct.AVRational, ptr, %struct.AVRational, %struct.AVPacket, i32, %struct.AVRational, i32 }
%struct.AVPacket = type { ptr, i64, i64, ptr, i32, i32, i32, ptr, i32, i64, i64, ptr, ptr, %struct.AVRational }
%struct.AVCodec = type { ptr, ptr, i32, i32, i32, i8, ptr, ptr, ptr, ptr, ptr, ptr, ptr, ptr }

@.str.90 = private unnamed_addr constant [14 x i8] c"Lavc62.3.101 \00", align 1
@.str.91 = private unnamed_addr constant [6 x i8] c"Lavc \00", align 1
@.str.92 = private unnamed_addr constant [8 x i8] c"encoder\00", align 1

; Function Attrs: nounwind uwtable
define internal i32 @set_encoder_id(ptr noundef %0, ptr noundef %1) #0 {
  %3 = alloca i32, align 4
  %4 = alloca ptr, align 8
  %5 = alloca ptr, align 8
  %6 = alloca ptr, align 8
  %7 = alloca ptr, align 8
  %8 = alloca i32, align 4
  %9 = alloca i32, align 4
  store ptr %0, ptr %4, align 8, !tbaa !95
  store ptr %1, ptr %5, align 8, !tbaa !275
  call void @llvm.lifetime.start.p0(i64 8, ptr %6) #12
  %10 = load ptr, ptr %5, align 8, !tbaa !275
  %11 = getelementptr inbounds nuw %struct.AVCodec, ptr %10, i32 0, i32 0
  %12 = load ptr, ptr %11, align 8, !tbaa !292
  store ptr %12, ptr %6, align 8, !tbaa !15
  call void @llvm.lifetime.start.p0(i64 8, ptr %7) #12
  call void @llvm.lifetime.start.p0(i64 4, ptr %8) #12
  %13 = load ptr, ptr %6, align 8, !tbaa !15
  %14 = call i64 @strlen(ptr noundef %13) #13
  %15 = add i64 13, %14
  %16 = add i64 %15, 2
  %17 = trunc i64 %16 to i32
  store i32 %17, ptr %8, align 4, !tbaa !4
  %18 = load i32, ptr %8, align 4, !tbaa !4
  %19 = sext i32 %18 to i64
  %20 = call noalias ptr @av_mallocz(i64 noundef %19)
  store ptr %20, ptr %7, align 8, !tbaa !15
  %21 = load ptr, ptr %7, align 8, !tbaa !15
  %22 = icmp ne ptr %21, null
  br i1 %22, label %24, label %23

23:                                               ; preds = %2
  store i32 -12, ptr %3, align 4
  store i32 1, ptr %9, align 4
  br label %58

24:                                               ; preds = %2
  %25 = load ptr, ptr %4, align 8, !tbaa !95
  %26 = getelementptr inbounds nuw %struct.OutputStream, ptr %25, i32 0, i32 2
  %27 = load ptr, ptr %26, align 8, !tbaa !366
  %28 = getelementptr inbounds nuw %struct.OutputFile, ptr %27, i32 0, i32 7
  %29 = load i32, ptr %28, align 8, !tbaa !78
  %30 = icmp ne i32 %29, 0
  br i1 %30, label %41, label %31

31:                                               ; preds = %24
  %32 = load ptr, ptr %4, align 8, !tbaa !95
  %33 = getelementptr inbounds nuw %struct.OutputStream, ptr %32, i32 0, i32 8
  %34 = load i32, ptr %33, align 4, !tbaa !307
  %35 = icmp ne i32 %34, 0
  br i1 %35, label %41, label %36

36:                                               ; preds = %31
  %37 = load ptr, ptr %7, align 8, !tbaa !15
  %38 = load i32, ptr %8, align 4, !tbaa !4
  %39 = sext i32 %38 to i64
  %40 = call i64 @av_strlcpy(ptr noundef %37, ptr noundef @.str.90, i64 noundef %39)
  br label %46

41:                                               ; preds = %31, %24
  %42 = load ptr, ptr %7, align 8, !tbaa !15
  %43 = load i32, ptr %8, align 4, !tbaa !4
  %44 = sext i32 %43 to i64
  %45 = call i64 @av_strlcpy(ptr noundef %42, ptr noundef @.str.91, i64 noundef %44)
  br label %46

46:                                               ; preds = %41, %36
  %47 = load ptr, ptr %7, align 8, !tbaa !15
  %48 = load ptr, ptr %6, align 8, !tbaa !15
  %49 = load i32, ptr %8, align 4, !tbaa !4
  %50 = sext i32 %49 to i64
  %51 = call i64 @av_strlcat(ptr noundef %47, ptr noundef %48, i64 noundef %50)
  %52 = load ptr, ptr %4, align 8, !tbaa !95
  %53 = getelementptr inbounds nuw %struct.OutputStream, ptr %52, i32 0, i32 5
  %54 = load ptr, ptr %53, align 8, !tbaa !190
  %55 = getelementptr inbounds nuw %struct.AVStream, ptr %54, i32 0, i32 12
  %56 = load ptr, ptr %7, align 8, !tbaa !15
  %57 = call i32 @av_dict_set(ptr noundef %55, ptr noundef @.str.92, ptr noundef %56, i32 noundef 24)
  store i32 0, ptr %3, align 4
  store i32 1, ptr %9, align 4
  br label %58

58:                                               ; preds = %46, %23
  call void @llvm.lifetime.end.p0(i64 4, ptr %8) #12
  call void @llvm.lifetime.end.p0(i64 8, ptr %7) #12
  call void @llvm.lifetime.end.p0(i64 8, ptr %6) #12
  %59 = load i32, ptr %3, align 4
  ret i32 %59
}