; Function Attrs: nounwind uwtable
define internal fastcc range(i32 -12, 1) i32 @set_encoder_id(ptr noundef nonnull readonly captures(none) %0, ptr %.0.val) unnamed_addr #0 {
  %2 = tail call i64 @strlen(ptr noundef nonnull dereferenceable(1) %.0.val) #17
  %3 = shl i64 %2, 32
  %sext = add i64 %3, 64424509440
  %4 = ashr exact i64 %sext, 32
  %5 = tail call noalias ptr @av_mallocz(i64 noundef %4) #16
  %.not = icmp eq ptr %5, null
  br i1 %.not, label %22, label %6

6:                                                ; preds = %1
  %7 = getelementptr inbounds nuw i8, ptr %0, i64 16
  %8 = load ptr, ptr %7, align 8, !tbaa !418
  %9 = getelementptr inbounds nuw i8, ptr %8, i64 56
  %10 = load i32, ptr %9, align 8, !tbaa !71
  %.not16 = icmp eq i32 %10, 0
  br i1 %.not16, label %11, label %14

11:                                               ; preds = %6
  %12 = getelementptr inbounds nuw i8, ptr %0, i64 60
  %13 = load i32, ptr %12, align 4, !tbaa !388
  %.not17 = icmp eq i32 %13, 0
  br i1 %.not17, label %15, label %14

14:                                               ; preds = %11, %6
  br label %15

15:                                               ; preds = %11, %14
  %.str.91.sink = phi ptr [ @.str.91, %14 ], [ @.str.90, %11 ]
  %16 = tail call i64 @av_strlcpy(ptr noundef nonnull %5, ptr noundef nonnull %.str.91.sink, i64 noundef %4) #16
  %17 = tail call i64 @av_strlcat(ptr noundef nonnull %5, ptr noundef nonnull %.0.val, i64 noundef %4) #16
  %18 = getelementptr inbounds nuw i8, ptr %0, i64 40
  %19 = load ptr, ptr %18, align 8, !tbaa !158
  %20 = getelementptr inbounds nuw i8, ptr %19, i64 80
  %21 = tail call i32 @av_dict_set(ptr noundef nonnull %20, ptr noundef nonnull @.str.92, ptr noundef nonnull %5, i32 noundef 24) #16
  br label %22

22:                                               ; preds = %1, %15
  %.0 = phi i32 [ 0, %15 ], [ -12, %1 ]
  ret i32 %.0
}